target datalayout = "e-m:e-p270:32:32-p271:32:32-p272:64:64-i64:64-i128:128-f80:128-n8:16:32:64-S128"
target triple = "x86_64-pc-linux-gnu"

%struct.XXH3_state_s = type { [8 x i64], [192 x i8], [256 x i8], i32, i32, i64, i64, i64, i64, i64, i64, ptr }

; Function Attrs: mustprogress nounwind uwtable
define internal void @_ZL19XXH3_reset_internalP12XXH3_state_smPKvm(ptr noundef %0, i64 noundef %1, ptr noundef %2, i64 noundef %3) #4 {
  %5 = alloca ptr, align 8
  %6 = alloca i64, align 8
  %7 = alloca ptr, align 8
  %8 = alloca i64, align 8
  %9 = alloca i64, align 8
  %10 = alloca i64, align 8
  store ptr %0, ptr %5, align 8, !tbaa !40
  store i64 %1, ptr %6, align 8, !tbaa !8
  store ptr %2, ptr %7, align 8, !tbaa !4
  store i64 %3, ptr %8, align 8, !tbaa !8
  call void @llvm.lifetime.start.p0(i64 8, ptr %9) #22
  store i64 512, ptr %9, align 8, !tbaa !8
  call void @llvm.lifetime.start.p0(i64 8, ptr %10) #22
  store i64 24, ptr %10, align 8, !tbaa !8
  %11 = load ptr, ptr %5, align 8, !tbaa !40
  %12 = icmp ne ptr %11, null
  br i1 %12, label %14, label %13

13:                                               ; preds = %4
  unreachable

14:                                               ; preds = %4
  %15 = load ptr, ptr %5, align 8, !tbaa !40
  %16 = getelementptr inbounds nuw i8, ptr %15, i64 512
  call void @llvm.memset.p0.i64(ptr align 1 %16, i8 0, i64 24, i1 false)
  %17 = load ptr, ptr %5, align 8, !tbaa !40
  %18 = getelementptr inbounds nuw %struct.XXH3_state_s, ptr %17, i32 0, i32 0
  %19 = getelementptr inbounds [8 x i64], ptr %18, i64 0, i64 0
  store i64 3266489917, ptr %19, align 64, !tbaa !8
  %20 = load ptr, ptr %5, align 8, !tbaa !40
  %21 = getelementptr inbounds nuw %struct.XXH3_state_s, ptr %20, i32 0, i32 0
  %22 = getelementptr inbounds [8 x i64], ptr %21, i64 0, i64 1
  store i64 -7046029288634856825, ptr %22, align 8, !tbaa !8
  %23 = load ptr, ptr %5, align 8, !tbaa !40
  %24 = getelementptr inbounds nuw %struct.XXH3_state_s, ptr %23, i32 0, i32 0
  %25 = getelementptr inbounds [8 x i64], ptr %24, i64 0, i64 2
  store i64 -4417276706812531889, ptr %25, align 16, !tbaa !8
  %26 = load ptr, ptr %5, align 8, !tbaa !40
  %27 = getelementptr inbounds nuw %struct.XXH3_state_s, ptr %26, i32 0, i32 0
  %28 = getelementptr inbounds [8 x i64], ptr %27, i64 0, i64 3
  store i64 1609587929392839161, ptr %28, align 8, !tbaa !8
  %29 = load ptr, ptr %5, align 8, !tbaa !40
  %30 = getelementptr inbounds nuw %struct.XXH3_state_s, ptr %29, i32 0, i32 0
  %31 = getelementptr inbounds [8 x i64], ptr %30, i64 0, i64 4
  store i64 -8796714831421723037, ptr %31, align 32, !tbaa !8
  %32 = load ptr, ptr %5, align 8, !tbaa !40
  %33 = getelementptr inbounds nuw %struct.XXH3_state_s, ptr %32, i32 0, i32 0
  %34 = getelementptr inbounds [8 x i64], ptr %33, i64 0, i64 5
  store i64 2246822519, ptr %34, align 8, !tbaa !8
  %35 = load ptr, ptr %5, align 8, !tbaa !40
  %36 = getelementptr inbounds nuw %struct.XXH3_state_s, ptr %35, i32 0, i32 0
  %37 = getelementptr inbounds [8 x i64], ptr %36, i64 0, i64 6
  store i64 2870177450012600261, ptr %37, align 16, !tbaa !8
  %38 = load ptr, ptr %5, align 8, !tbaa !40
  %39 = getelementptr inbounds nuw %struct.XXH3_state_s, ptr %38, i32 0, i32 0
  %40 = getelementptr inbounds [8 x i64], ptr %39, i64 0, i64 7
  store i64 2654435761, ptr %40, align 8, !tbaa !8
  %41 = load i64, ptr %6, align 8, !tbaa !8
  %42 = load ptr, ptr %5, align 8, !tbaa !40
  %43 = getelementptr inbounds nuw %struct.XXH3_state_s, ptr %42, i32 0, i32 9
  store i64 %41, ptr %43, align 8, !tbaa !42
  %44 = load i64, ptr %6, align 8, !tbaa !8
  %45 = icmp ne i64 %44, 0
  %46 = zext i1 %45 to i32
  %47 = load ptr, ptr %5, align 8, !tbaa !40
  %48 = getelementptr inbounds nuw %struct.XXH3_state_s, ptr %47, i32 0, i32 4
  store i32 %46, ptr %48, align 4, !tbaa !44
  %49 = load ptr, ptr %7, align 8, !tbaa !4
  %50 = load ptr, ptr %5, align 8, !tbaa !40
  %51 = getelementptr inbounds nuw %struct.XXH3_state_s, ptr %50, i32 0, i32 11
  store ptr %49, ptr %51, align 8, !tbaa !45
  %52 = load i64, ptr %8, align 8, !tbaa !8
  %53 = icmp uge i64 %52, 136
  br i1 %53, label %55, label %54

54:                                               ; preds = %14
  unreachable

55:                                               ; preds = %14
  %56 = load i64, ptr %8, align 8, !tbaa !8
  %57 = sub i64 %56, 64
  %58 = load ptr, ptr %5, align 8, !tbaa !40
  %59 = getelementptr inbounds nuw %struct.XXH3_state_s, ptr %58, i32 0, i32 8
  store i64 %57, ptr %59, align 32, !tbaa !46
  %60 = load ptr, ptr %5, align 8, !tbaa !40
  %61 = getelementptr inbounds nuw %struct.XXH3_state_s, ptr %60, i32 0, i32 8
  %62 = load i64, ptr %61, align 32, !tbaa !46
  %63 = udiv i64 %62, 8
  %64 = load ptr, ptr %5, align 8, !tbaa !40
  %65 = getelementptr inbounds nuw %struct.XXH3_state_s, ptr %64, i32 0, i32 7
  store i64 %63, ptr %65, align 8, !tbaa !47
  call void @llvm.lifetime.end.p0(i64 8, ptr %10) #22
  call void @llvm.lifetime.end.p0(i64 8, ptr %9) #22
  ret void
}

; Function Attrs: mustprogress uwtable
define i32 @ROCKSDB_XXH3_64bits_reset(ptr noundef captures(none) %0) #3 {
  %2 = alloca i32, align 4
  %3 = alloca ptr, align 8
  store ptr %0, ptr %3, align 8, !tbaa !40
  %4 = load ptr, ptr %3, align 8, !tbaa !40
  %5 = icmp eq ptr %4, null
  br i1 %5, label %6, label %7

6:                                                ; preds = %1
  store i32 1, ptr %2, align 4
  br label %9

7:                                                ; preds = %1
  %8 = load ptr, ptr %3, align 8, !tbaa !40
  call void @_ZL19XXH3_reset_internalP12XXH3_state_smPKvm(ptr noundef %8, i64 noundef 0, ptr noundef @_ZL12XXH3_kSecret, i64 noundef 192)
  store i32 0, ptr %2, align 4
  br label %9

9:                                                ; preds = %7, %6
  %10 = load i32, ptr %2, align 4
  ret i32 %10
}

; Function Attrs: mustprogress uwtable
define i32 @ROCKSDB_XXH3_128bits_reset(ptr noundef captures(none) %0) #3 {
  %2 = alloca ptr, align 8
  store ptr %0, ptr %2, align 8, !tbaa !40
  %3 = load ptr, ptr %2, align 8, !tbaa !40
  %4 = call i32 @ROCKSDB_XXH3_64bits_reset(ptr noundef captures(none) %3)
  ret i32 %4
}